; ModuleID = '7/1092.c'
source_filename = "7/1092.c"
target datalayout = "e-m:e-p270:32:32-p271:32:32-p272:64:64-i64:64-f80:128-n8:16:32:64-S128"
target triple = "x86_64-pc-linux-gnu"

@.str = private unnamed_addr constant [3 x i8] c"%s\00", align 1

; Function Attrs: noinline nounwind uwtable
define dso_local i32 @main() #0 {
  %1 = alloca i32, align 4
  %2 = alloca i32, align 4
  %3 = alloca i32, align 4
  %4 = alloca i32, align 4
  %5 = alloca i32, align 4
  %6 = alloca [300 x i8], align 16
  %7 = alloca [300 x i8], align 16
  %8 = alloca [300 x i8], align 16
  %9 = alloca i32, align 4
  %10 = alloca i32, align 4
  %11 = alloca i32, align 4
  store i32 0, i32* %1, align 4
  store i32 1, i32* %5, align 4
  %12 = getelementptr inbounds [300 x i8], [300 x i8]* %7, i64 0, i64 0
  %13 = call i32 (i8*, ...) @__isoc99_scanf(i8* getelementptr inbounds ([3 x i8], [3 x i8]* @.str, i64 0, i64 0), i8* %12)
  %14 = getelementptr inbounds [300 x i8], [300 x i8]* %6, i64 0, i64 0
  %15 = call i32 (i8*, ...) @__isoc99_scanf(i8* getelementptr inbounds ([3 x i8], [3 x i8]* @.str, i64 0, i64 0), i8* %14)
  %16 = getelementptr inbounds [300 x i8], [300 x i8]* %8, i64 0, i64 0
  %17 = call i32 (i8*, ...) @__isoc99_scanf(i8* getelementptr inbounds ([3 x i8], [3 x i8]* @.str, i64 0, i64 0), i8* %16)
  %18 = getelementptr inbounds [300 x i8], [300 x i8]* %6, i64 0, i64 0
  %19 = call i64 @strlen(i8* %18) #3
  %20 = trunc i64 %19 to i32
  store i32 %20, i32* %9, align 4
  %21 = getelementptr inbounds [300 x i8], [300 x i8]* %7, i64 0, i64 0
  %22 = call i64 @strlen(i8* %21) #3
  %23 = trunc i64 %22 to i32
  store i32 %23, i32* %10, align 4
  %24 = getelementptr inbounds [300 x i8], [300 x i8]* %8, i64 0, i64 0
  %25 = call i64 @strlen(i8* %24) #3
  %26 = trunc i64 %25 to i32
  store i32 %26, i32* %11, align 4
  store i32 0, i32* %2, align 4
  br label %27

27:                                               ; preds = %84, %0
  %28 = load i32, i32* %2, align 4
  %29 = load i32, i32* %10, align 4
  %30 = icmp slt i32 %28, %29
  br i1 %30, label %31, label %87

31:                                               ; preds = %27
  store i32 0, i32* %4, align 4
  store i32 0, i32* %3, align 4
  br label %32

32:                                               ; preds = %52, %31
  %33 = load i32, i32* %3, align 4
  %34 = load i32, i32* %9, align 4
  %35 = icmp slt i32 %33, %34
  br i1 %35, label %36, label %55

36:                                               ; preds = %32
  %37 = load i32, i32* %3, align 4
  %38 = sext i32 %37 to i64
  %39 = getelementptr inbounds [300 x i8], [300 x i8]* %6, i64 0, i64 %38
  %40 = load i8, i8* %39, align 1
  %41 = sext i8 %40 to i32
  %42 = load i32, i32* %3, align 4
  %43 = load i32, i32* %2, align 4
  %44 = add nsw i32 %42, %43
  %45 = sext i32 %44 to i64
  %46 = getelementptr inbounds [300 x i8], [300 x i8]* %7, i64 0, i64 %45
  %47 = load i8, i8* %46, align 1
  %48 = sext i8 %47 to i32
  %49 = icmp eq i32 %41, %48
  br i1 %49, label %51, label %50

50:                                               ; preds = %36
  store i32 1, i32* %4, align 4
  br label %55

51:                                               ; preds = %36
  br label %52

52:                                               ; preds = %51
  %53 = load i32, i32* %3, align 4
  %54 = add nsw i32 %53, 1
  store i32 %54, i32* %3, align 4
  br label %32

55:                                               ; preds = %50, %32
  %56 = load i32, i32* %4, align 4
  %57 = icmp ne i32 %56, 0
  br i1 %57, label %83, label %58

58:                                               ; preds = %55
  %59 = load i32, i32* %5, align 4
  %60 = icmp ne i32 %59, 0
  br i1 %60, label %61, label %83

61:                                               ; preds = %58
  %62 = load i32, i32* %2, align 4
  store i32 %62, i32* %3, align 4
  br label %63

63:                                               ; preds = %79, %61
  %64 = load i32, i32* %3, align 4
  %65 = load i32, i32* %2, align 4
  %66 = load i32, i32* %11, align 4
  %67 = add nsw i32 %65, %66
  %68 = icmp slt i32 %64, %67
  br i1 %68, label %69, label %82

69:                                               ; preds = %63
  %70 = load i32, i32* %3, align 4
  %71 = load i32, i32* %2, align 4
  %72 = sub nsw i32 %70, %71
  %73 = sext i32 %72 to i64
  %74 = getelementptr inbounds [300 x i8], [300 x i8]* %8, i64 0, i64 %73
  %75 = load i8, i8* %74, align 1
  %76 = load i32, i32* %3, align 4
  %77 = sext i32 %76 to i64
  %78 = getelementptr inbounds [300 x i8], [300 x i8]* %7, i64 0, i64 %77
  store i8 %75, i8* %78, align 1
  br label %79

79:                                               ; preds = %69
  %80 = load i32, i32* %3, align 4
  %81 = add nsw i32 %80, 1
  store i32 %81, i32* %3, align 4
  br label %63

82:                                               ; preds = %63
  store i32 0, i32* %5, align 4
  br label %83

83:                                               ; preds = %82, %58, %55
  br label %84

84:                                               ; preds = %83
  %85 = load i32, i32* %2, align 4
  %86 = add nsw i32 %85, 1
  store i32 %86, i32* %2, align 4
  br label %27

87:                                               ; preds = %27
  %88 = getelementptr inbounds [300 x i8], [300 x i8]* %7, i64 0, i64 0
  %89 = call i32 (i8*, ...) @printf(i8* getelementptr inbounds ([3 x i8], [3 x i8]* @.str, i64 0, i64 0), i8* %88)
  ret i32 0
}

declare dso_local i32 @__isoc99_scanf(i8*, ...) #1

; Function Attrs: nounwind readonly
declare dso_local i64 @strlen(i8*) #2

declare dso_local i32 @printf(i8*, ...) #1


!llvm.module.flags = !{!0}
!llvm.ident = !{!1}

!0 = !{i32 1, !"wchar_size", i32 4}
!1 = !{!"clang version 10.0.0-4ubuntu1 "}
